; Function Attrs: nounwind sspstrong uwtable
define dso_local i64 @rb_time_timespec_new(ptr noundef nonnull readonly captures(none) %0, i32 noundef %1) local_unnamed_addr #1 {
  %3 = load i64, ptr @rb_cTime, align 8, !tbaa !11
  %4 = load i64, ptr %0, align 8, !tbaa !30
  %5 = getelementptr inbounds nuw i8, ptr %0, i64 8
  %6 = load i64, ptr %5, align 8, !tbaa !32
  %7 = tail call fastcc i64 @nsec2timew(i64 noundef %4, i64 noundef %6)
  %8 = tail call i64 @rb_data_typed_object_zalloc(i64 noundef %3, i64 noundef 48, ptr noundef nonnull @time_data_type) #21
  %9 = inttoptr i64 %8 to ptr
  %10 = getelementptr inbounds nuw i8, ptr %9, i64 24
  %11 = load i64, ptr %10, align 8, !tbaa !20
  %12 = and i64 %11, 2
  %.not.i.i.i = icmp eq i64 %12, 0
  %13 = getelementptr i8, ptr %9, i64 32
  br i1 %.not.i.i.i, label %14, label %time_s_alloc.exit.i

14:                                               ; preds = %2
  %15 = load ptr, ptr %13, align 8, !tbaa !24
  br label %time_s_alloc.exit.i

time_s_alloc.exit.i:                              ; preds = %14, %2
  %16 = phi ptr [ %15, %14 ], [ %13, %2 ]
  %17 = getelementptr inbounds nuw i8, ptr %16, i64 40
  %18 = load i64, ptr %17, align 8
  %19 = and i64 %18, -131941395333121
  %20 = or disjoint i64 %19, 26388279066624
  store i64 %20, ptr %17, align 8
  store i64 1, ptr %16, align 8, !tbaa !25
  %21 = getelementptr inbounds nuw i8, ptr %16, i64 32
  store i64 4, ptr %21, align 8, !tbaa !29
  %22 = load i64, ptr %10, align 8, !tbaa !20
  %23 = and i64 %22, 2
  %.not.i.i = icmp eq i64 %23, 0
  br i1 %.not.i.i, label %24, label %RTYPEDDATA_GET_DATA.exit.i

24:                                               ; preds = %time_s_alloc.exit.i
  %25 = load ptr, ptr %13, align 8, !tbaa !24
  br label %RTYPEDDATA_GET_DATA.exit.i

RTYPEDDATA_GET_DATA.exit.i:                       ; preds = %24, %time_s_alloc.exit.i
  %26 = phi ptr [ %25, %24 ], [ %13, %time_s_alloc.exit.i ]
  %27 = getelementptr inbounds nuw i8, ptr %26, i64 40
  %28 = load i64, ptr %27, align 8
  %29 = and i64 %28, -61572651155457
  store i64 %29, ptr %27, align 8
  store i64 %7, ptr %26, align 8, !tbaa !25
  %30 = and i64 %7, 1
  %.not.i6.i = icmp eq i64 %30, 0
  br i1 %.not.i6.i, label %31, label %time_new_timew.exit

31:                                               ; preds = %RTYPEDDATA_GET_DATA.exit.i
  %32 = icmp eq i64 %7, 0
  %33 = and i64 %7, 6
  %34 = icmp ne i64 %33, 0
  %35 = or i1 %32, %34
  br i1 %35, label %time_new_timew.exit, label %36

36:                                               ; preds = %31
  tail call void @rb_gc_writebarrier(i64 noundef %8, i64 noundef %7) #21
  br label %time_new_timew.exit

time_new_timew.exit:                              ; preds = %RTYPEDDATA_GET_DATA.exit.i, %31, %36
  %37 = add i32 %1, 86399
  %or.cond = icmp ult i32 %37, 172799
  br i1 %or.cond, label %38, label %52

38:                                               ; preds = %time_new_timew.exit
  %39 = tail call ptr @rb_check_typeddata(i64 noundef %8, ptr noundef nonnull @time_data_type) #21
  %40 = getelementptr inbounds nuw i8, ptr %39, i64 40
  %41 = load i64, ptr %40, align 8
  %42 = and i64 %41, 61572651155456
  %.not.i = icmp eq i64 %42, 26388279066624
  br i1 %.not.i, label %43, label %get_timeval.exit

43:                                               ; preds = %38
  %44 = load i64, ptr @rb_eTypeError, align 8, !tbaa !11
  %45 = tail call i64 @rb_obj_class(i64 noundef %8) #21
  tail call void (i64, ptr, ...) @rb_raise(i64 noundef %44, ptr noundef nonnull @.str.92, i64 noundef %45) #22
  unreachable

get_timeval.exit:                                 ; preds = %38
  %46 = and i64 %41, -61572651155457
  %47 = or disjoint i64 %46, 17592186044416
  store i64 %47, ptr %40, align 8
  %48 = getelementptr inbounds nuw i8, ptr %39, i64 24
  %49 = sext i32 %1 to i64
  %50 = shl nsw i64 %49, 1
  %51 = or disjoint i64 %50, 1
  store i64 %51, ptr %48, align 8, !tbaa !11
  br label %65

52:                                               ; preds = %time_new_timew.exit
  switch i32 %1, label %63 [
    i32 2147483647, label %65
    i32 2147483646, label %53
  ]

53:                                               ; preds = %52
  %54 = tail call ptr @rb_check_typeddata(i64 noundef %8, ptr noundef nonnull @time_data_type) #21
  %55 = getelementptr inbounds nuw i8, ptr %54, i64 40
  %56 = load i64, ptr %55, align 8
  %57 = and i64 %56, 61572651155456
  %.not.i17 = icmp eq i64 %57, 26388279066624
  br i1 %.not.i17, label %58, label %get_timeval.exit18

58:                                               ; preds = %53
  %59 = load i64, ptr @rb_eTypeError, align 8, !tbaa !11
  %60 = tail call i64 @rb_obj_class(i64 noundef %8) #21
  tail call void (i64, ptr, ...) @rb_raise(i64 noundef %59, ptr noundef nonnull @.str.92, i64 noundef %60) #22
  unreachable

get_timeval.exit18:                               ; preds = %53
  %61 = and i64 %56, -61572651155457
  %62 = or disjoint i64 %61, 8796093022208
  store i64 %62, ptr %55, align 8
  br label %65

63:                                               ; preds = %52
  %64 = load i64, ptr @rb_eArgError, align 8, !tbaa !11
  tail call void (i64, ptr, ...) @rb_raise(i64 noundef %64, ptr noundef nonnull @.str.2) #22
  unreachable

65:                                               ; preds = %52, %get_timeval.exit18, %get_timeval.exit
  ret i64 %8
}